(dp1
S'395-Horsepower-VW-Golf-Is-Pure,-Wonderful-Excess-.txt'
p2
I1
sS'10-Ingenious-Hacks-That-Helped-Facebook-Take-Over-the-Internet-.txt'
p3
I92
sS'10-Years-Later,-Final-Fantasy-Concerts-Get-a-Much-Needed-Reboot-.txt'
p4
I13
s.