(lp0
S'10-Ingenious-Hacks-That-Helped-Facebook-Take-Over-the-Internet-.txt'
p1
aS'10-Years-Later,-Final-Fantasy-Concerts-Get-a-Much-Needed-Reboot-.txt'
p2
aS'395-Horsepower-VW-Golf-Is-Pure,-Wonderful-Excess-.txt'
p3
aS'400-Years-of-Beautiful,-Historical,-and-Powerful-Globes-.txt'
p4
aS'5-Bitcoin-Projects-That-Could-Make-Payments-Far-More-Anonymous-.txt'
p5
aS'5-Reasons-You-Should-Consider-a-Different-Physics-Textbook-.txt'
p6
aS'7-Masterworks-From-the-Golden-Age-of-Hip-Hop-.txt'
p7
aS'8-Things--Godzilla\xe2\x80\x99s-Director-Did-to-Make-Sure-His-Reboot-Doesn\xe2\x80\x99t-Suck-.txt'
p8
aS'9-Nifty-Kickstarter-Designs-That-You-Can-Buy-Right-Now-.txt'
p9
aS'9-of-the-World\xe2\x80\x99s-Most-Outrageously-Expensive-Headphones-.txt'
p10
aS'A-Disorienting-Survey-of-Suburban-Sprawl,-from-Dubai-to-L.A.-.txt'
p11
aS'A-Gross-Gadget-That-Raises-Flies-for-You-to-Eat-.txt'
p12
aS'A-Hackathon-Where-2G-Era-Tech-Is-King-.txt'
p13
aS'A-Marmoset-Never-Forgets-.txt'
p14
aS'A-Razor-That-Reaches-Every-Weird-Spot-on-Your-Face-.txt'
p15
aS'A-Science-Experiment-From-Your-Childhood,-Turned-Into-Gorgeous-Photographs-.txt'
p16
aS'A-Visionary-3-D-Printed-Chair-That-You-Can-Download-Now-.txt'
p17
aS'ABC-Doubling-Down-on-Marvel-Shows-Next-Fall-With-Agent-Carter-.txt'
p18
aS'Absurd-Creature-of-the-Week-Pink-Fairy-Armadillo-Crawls-Out-of-the-Desert-and-Into-Your-Heart-.txt'
p19
aS'Absurd-Creature-of-the-Week-This-Oceanic-\xe2\x80\x98Nightmare\xe2\x80\x99-Suffocates-Foes-With-Clouds-of-Slime-.txt'
p20
aS'Absurd-Creature-of-the-Week-World\xe2\x80\x99s-Most-Badass-Ant-Skydives,-Uses-Own-Head-as-a-Shield-.txt'
p21
aS'Active-Learning-Leads-to-Higher-Grades-and-Fewer-Failing-Students-in-Science,-Math,-and-Engineering-.txt'
p22
aS'Actually,-the-Comcast-Time-Warner-Merger-Doesn\xe2\x80\x99t-Hurt-Netflix-.txt'
p23
aS'Air-Space-.txt'
p24
aS'Amazingly-Vivid-Dino-Illustrations-Reveal-a-Brutal-Prehistoric-World-.txt'
p25
aS'Amazon-Could-Save-Twitter-From-a-Fatal-Stall-.txt'
p26
aS'AMD-Emerges-From-Intel\xe2\x80\x99s-Shadow-With-Big-Bet-on-Low-Power-Chips-.txt'
p27
aS'An-Amazing-Discovery-Andy-Warhol\xe2\x80\x99s-Groundbreaking-Computer-Art-.txt'
p28
aS'An-App-That-Makes-It-Easy-to-Pester-Your-Congress-Member-.txt'
p29
aS'An-Awesome-Font-Culled-From-2,000-Pieces-of-Beach-Debris-.txt'
p30
aS'An-Ingenious-Shock-Absorbing-Wheel-for-Bikes-and-Wheelchairs-.txt'
p31
aS'An-Inside-Look-at-the-Insanely-Complex-Formula-1-Steering-Wheel-.txt'
p32
aS'An-Invisible-Barn,-Made-With-Low-Tech-Trickery-.txt'
p33
aS'Apple-Aims-to-Shrink-Its-Carbon-Footprint-With-New-Data-Centers-.txt'
p34
aS'Are-You-Using-the-Wrong-Android-Keyboard-This-App-Can-Tell-You-.txt'
p35
aS'Asia\xe2\x80\x99s-Richest-Man-Invests-Millions-in-Fake-Egg-Startup-.txt'
p36
aS'Audi\xe2\x80\x99s-New-R8-Supercar-Has-Frickin\xe2\x80\x99-Lasers-for-Headlights-.txt'
p37
aS'Battle-Voldemort-in-Orlando\xe2\x80\x99s-Wild-New-Harry-Potter-Ride-.txt'
p38
aS'Beyond-Honeybees-Now-Wild-Bees-and-Butterflies-May-Be-in-Trouble-.txt'
p39
aS'Biologists-Create-Cells-With-6-DNA-Letters,-Instead-of-Just-4-.txt'
p40
aS'Black-Hawk-Drone-Army\xe2\x80\x99s-Iconic-Helicopter-Goes-Pilotless-.txt'
p41
aS'Book-Break-.txt'
p42
aS'Can-Neuroscience-Really-Help-Us-Understand-the-Nuclear-Negotiations-With-Iran-.txt'
p43
aS'Can-You-Catch-Your-Own-Football-Pass-.txt'
p44
aS'Catch-Up-on-Orphan-Black-With-This-Handy-Cheat-Sheet-.txt'
p45
aS'Charge-Your-Phone-in-Style-With-This-Solar-Powered-Dress-.txt'
p46
aS'Check-Out-Early-Storyboards-From-the-Original-Star-Wars-Trilogy-.txt'
p47
aS'Check-Out-This-Glorious,-Colorful-History-of-Arcade-Games-.txt'
p48
aS'Chinese-Giant-Alibaba-Files-for-IPO,-Perhaps-the-Largest-in-U.S.-History-.txt'
p49
aS'Color-Coded-Microparticles-Could-Thwart-Counterfeiters--.txt'
p50
aS'Community-Canceled-Dan-Harmon-Cries,-Tells-Fans-to-\xe2\x80\x98Relax\xe2\x80\x99--.txt'
p51
aS'Costs-of-Censorship-Haunt-\xe2\x80\x98Chinese-Twitter\xe2\x80\x99-IPO-.txt'
p52
aS'Could-a-Hotel-Bring-Back-Los-Angeles\xe2\x80\x99-Theater-Row-.txt'
p53
aS'Could-Godzilla-Ice-Skate-.txt'
p54
aS'Crazy-Video-Trick-Makes-You-King-of-Your-Own-Tiny-Planet-.txt'
p55
aS'Dazed-and-Confused-.txt'
p56
aS'Design-FX-How-Nebulas-Inspired-the-Look-of-Spider-Man\xe2\x80\x99s-Latest-Archenemy-.txt'
p57
aS'Design-Is-Why-2048-Sucks,-and-Threes-Is-a-Masterpiece-.txt'
p58
aS'Disney-Invents-Robots-That-Swarm-Into-Colorful-Animations-.txt'
p59
aS'Disney-Meets-Orwell-With-These-Super-Cute-Surveillance-Cameras-.txt'
p60
aS'Disney\xe2\x80\x99s-12-Principles-of-Animation-(Pay-Attention,-App-Designers)-.txt'
p61
aS'Epic-Photos-Expose-Mankind\xe2\x80\x99s-Uneasy-Relationship-With-Water-.txt'
p62
aS'EU-Rules-That-Google-Must-Honor-Your-\xe2\x80\x98Right-to-be-Forgotten\xe2\x80\x99-.txt'
p63
aS'Everything-You-Should-Know-Before-Watching-Penny-Dreadful-.txt'
p64
aS'Facebook-Deploys-Robots-to-Save-Blu-ray-From-Extinction-.txt'
p65
aS'Facebook-Paper-Has-Forever-Changed-the-Way-We-Build-Mobile-Apps-.txt'
p66
aS'Facebook\xe2\x80\x99s-Greatest-Innovations-The-First-Decade-.txt'
p67
aS'Facebook\xe2\x80\x99s-Plan-to-Conquer-the-World-\xe2\x80\x94-With-Crappy-Phones-and-Bad-Networks-.txt'
p68
aS'Failure-Is-the-Best-Thing-That-Could-Happen-to-Google-Glass-.txt'
p69
aS'Fans-Deliver-a-Stunning-Live-Action-Akira-Trailer-.txt'
p70
aS'Fantastically-Wrong-The-Disturbing-Reality-That-Spawned-the-Mythical-Jackalope-.txt'
p71
aS'Fantastically-Wrong-When-People-Thought-Lambs-Grew-Right-Out-of-the-Ground-.txt'
p72
aS'Follow-an-Urban-Treasure-Hunter-as-He-Unearths-Strange-Americana-.txt'
p73
aS'Former-NSA-Chief-Defends-Stockpiling-Software-Flaws-for-Spying-.txt'
p74
aS'Gadget-Lab-Podcast-Facebook\xe2\x80\x99s-Killing-It-as-Twitter-Lags-Behind-.txt'
p75
aS'Game-of-Thrones-Gives-Us-the-Best-Wedding-Gift-Imaginable-.txt'
p76
aS'Game.txt'
p77
aS'Gardening-for-the-Bees-.txt'
p78
aS'Glenn-Greenwald\xe2\x80\x99s-Pulse-Pounding-Tale-of-Breaking-the-Snowden-Leaks-.txt'
p79
aS'Google\xe2\x80\x99s-Bold-Plan-to-Overthrow-Amazon-as-King-of-the-Cloud-.txt'
p80
aS'Gorillaz\xe2\x80\x99s-Damon-Albarn-on-Tech-Anxiety-and-the-Magic-of-Partnerships-.txt'
p81
aS'Graduations-Are-Way-Less-Awful-With-Commencement-Speech-Bingo-.txt'
p82
aS'Hackers-Can-Mess-With-Traffic-Lights-to-Jam-Roads-and-Reroute-Cars-.txt'
p83
aS'Happy-Mother\xe2\x80\x99s-Day!-Here-Are-the-Best-Mother-Approved-WIRED-Comments-This-Week-.txt'
p84
aS'Here\xe2\x80\x99s-How-to-Delete-Comments-and-Correct-Typos-on-Instagram-.txt'
p85
aS'How-Airbnb-and-Lyft-Finally-Got-Americans-to-Trust-Each-Other-.txt'
p86
aS'How-Changing-Technology-Affects-Security-.txt'
p87
aS'How-Do-We-Know-the-Earth-Orbits-the-Sun-.txt'
p88
aS'How-Facebook-Could-Actually-Give-You-Anonymity-.txt'
p89
aS'How-Flesh-Eating-Strep-Bacteria-Evolved-Into-an-Epidemic-.txt'
p90
aS'How-Greed-Almost-Sabotaged-the-Smartphone-Kill-Switch-.txt'
p91
aS'How-the-FCC-Created-Its-Own-Net-Neutrality-Mess-.txt'
p92
aS'How-the-Godzilla-Team-Designed-the-Monster\xe2\x80\x99s-Iconic-Scream-.txt'
p93
aS'How-Thoroughbreds-Convert-Air-Into-Blazing-Speed-.txt'
p94
aS'How-to-Fix-Wearable-Tech\xe2\x80\x99s-Bad-Image-Problem-.txt'
p95
aS'How-to-Peel-Away-the-Grossness-That-Your-Phone-Maker-Added-to-Android-.txt'
p96
aS'How-You\xe2\x80\x99ll-Fund-\xe2\x80\x94-And-Wildly-Profit-From-\xe2\x80\x94-The-Next-Oculus-Rift-.txt'
p97
aS'HP\xe2\x80\x99s-New-Cloud-Service-Keeps-Your-Data-From-Google\xe2\x80\x99s-Clutches-.txt'
p98
aS'Human-Tears-Under-a-Microscope-Look-Like-Aerial-Views-of-Earth-.txt'
p99
aS'Incredible-Historical-Photos-From-One-of-the-World\xe2\x80\x99s-Best-Museums-.txt'
p100
aS'Inside-the-Strange-New-World-of-DIY-Brain-Stimulation-.txt'
p101
aS'Isn\xe2\x80\x99t-This-Physics-and-Not-Computer-Science-.txt'
p102
aS'J.J.-Abrams-Releases-Star-Wars-Episode-VII-Video-Update,-Internet-Goes-Nuts-.txt'
p103
aS'Jawbone-Tries-a-New-Strategy-to-Make-Fitness-Trackers-Actually-Useful-.txt'
p104
aS'Joss-Whedon\xe2\x80\x99s-New-Film-Isn\xe2\x80\x99t-in-Theaters,-But-You-Can-Watch-It-Online-for-$5-.txt'
p105
aS'Kickstarter-Rockets-Into-the-Mainstream-After-Facebook\xe2\x80\x99s-$2B-Oculus-Buy--.txt'
p106
aS'Lytro\xe2\x80\x99s-Magical-DSLR-Like-Camera-Lets-You-Refocus-Photos-After-You-Take-Them-.txt'
p107
aS'Mad-Men-Recap-Everyone-Has-a-Problem-With-Authority-.txt'
p108
aS'Mad-Men-Recap-The-Stallion-Rides-Again-.txt'
p109
aS'Mad-Men-Recap-The-Truth-Will-Set-You-Back-.txt'
p110
aS'Mad-Men-Recap-Welcome-to-the-Beginning-of-the-End-.txt'
p111
aS'McLaren\xe2\x80\x99s-Hybrid-Supercar-Will-Get-an-Even-More-Super-Track-Version-.txt'
p112
aS'Meet-the-Man-Google-Hired-to-Make-AI-a-Reality-.txt'
p113
aS'Meet-the-Open-Source-Trio-Primed-to-Topple-Oracle--.txt'
p114
aS'Microsoft-Had-No-Choice-but-to-Yank-Kinect-From-Xbox-One-.txt'
p115
aS'Microsoft-Open-Sources-Its-Internet-Servers,-Steps-Into-the-Future-.txt'
p116
aS'Mystery-Science-Theater-3000-The-Definitive-Oral-History-of-a-TV-Masterpiece-.txt'
p117
aS'Native-Bees-Increase-Blueberry-Crop-Yields-.txt'
p118
aS'Netflix-Is-Getting-Its-Own-Cable-Channel--.txt'
p119
aS'Netflix-Is-the-Real-Winner-if-the-Supreme-Court-Sides-With-Aereo-.txt'
p120
aS'Network-Admin-Allegedly-Hacked-Navy\xe2\x80\x94While-on-an-Aircraft-Carrier-.txt'
p121
aS'New-Moto-Phones-Coming-Soon-One-Faster,-One-Cheaper-.txt'
p122
aS'Nike-Failed.-Now-Only-Apple-Can-Save-Wearables-.txt'
p123
aS'Nintendo-Remixes-Its-Greatest-NES-Titles-Into-Clever-Mini-Games-.txt'
p124
aS'Nintendo-Will-Debut-These-Skylanders-Style-Figures-at-E3-.txt'
p125
aS'None.txt'
p126
aS'Obama-NSA-Must-Reveal-Bugs-Like-Heartbleed,-Unless-They-Help-the-NSA-.txt'
p127
aS'Oculus-Is-Awesome-for-Games,-But-It\xe2\x80\x99s-the-Future-of-Movies-.txt'
p128
aS'Ohio-Bans-Buying-Booze-With-Bitcoin-.txt'
p129
aS'One-Take-Two-.txt'
p130
aS'Our-Smartphones-Are-Making-Live-TV-Better-Than-Ever-.txt'
p131
aS'Out-in-the-Open-An-Open-Source-Website-That-Gives-Voters-a-Platform-to-Influence-Politicians-.txt'
p132
aS'Out-in-the-Open-Occupy-Wall-Street-Reincarnated-as-Open-Source-Software-.txt'
p133
aS'Out-in-the-Open-The-Tiny-Box-That-Lets-You-Take-Your-Data-Back-From-Google-.txt'
p134
aS'Pentagon\xe2\x80\x99s-Superpowered-Autopilot-Will-Do-the-Work-of-5-Crew-Members-.txt'
p135
aS'Photographer-Dives-Into-the-Strange,-Subversive-World-of-Bitcoin-.txt'
p136
aS'Polio-Declared-An-International-Health-Emergency-.txt'
p137
aS'Power-Rangers-Gets-the-Movie-Reboot-We\xe2\x80\x99ve-Been-Waiting-For-.txt'
p138
aS'Psychologists-Give-People-Control-of-Their-Dreams-Using-Brain-Stimulation.-Really-.txt'
p139
aS'Quantum-Microscope-May-Be-Able-to-See-Inside-Living-Cells-.txt'
p140
aS'Read-This-Before-Zapping-Your-Brain-.txt'
p141
aS'Reading-Between-the-Lines-of-Redacted-NSA-Documents-.txt'
p142
aS'Rebooted-HTC-One-Aims-to-Fix-the-Original\xe2\x80\x99s-Few-Faults-.txt'
p143
aS'Robo-Ape-Crawls-Like-a-Spider,-Opens-Doors,-Saves-Lives-.txt'
p144
aS'Samsung\xe2\x80\x99s-New-Flagship-Handset-and-Wearables-Aim-to-Keep-You-Fit-.txt'
p145
aS'Scale-Free-Mathematics-in-Matzah-.txt'
p146
aS'Scientists-May-Have-Decoded-One-of-the-Secrets-to-Superconductors-.txt'
p147
aS'Scientists-Tweak-Genes-to-Give-Bacteria-Electrical-Superpowers-.txt'
p148
aS'See-How-Cadbury-Hatches-350-Million-Goo-Filled-Eggs-a-Year-.txt'
p149
aS'Small-but-Mighty-Charger-Juices-Tablets-and-Jump-Starts-Cars-.txt'
p150
aS'Square-Enix-Teases-Finally-Bringing-Dragon-Quest-X-Stateside-.txt'
p151
aS'Square-Turns-the-Lowly-Receipt-Into-a-Giant-Opportunity-.txt'
p152
aS'Square-Wallet-Had-Everything-Going-for-It.-And-Now-It\xe2\x80\x99s-Dead-.txt'
p153
aS'Squeeze-Play-.txt'
p154
aS'Stanford-Whizzes-Develop-an-Astoundingly-Cheap-Fix-for-Clubfoot-.txt'
p155
aS'Stick-It-to-the-Cable-Man-.txt'
p156
aS'Supercomputers-Simulate-the-Universe-in-Unprecedented-Detail-.txt'
p157
aS'Switch-From-iOS-to-Android-(Or-Vice-Versa)-in-4-Easy-Steps-.txt'
p158
aS'Tech-Time-Warp-of-the-Week-Watch-Google-Recruit-for-the-First-Human-Colony-on-Mars-.txt'
p159
aS'Ten-open-source-hard-ware-projects-to-allegedly-save-the-Earth-.txt'
p160
aS'Thailand,-Through-a-New-Lens-.txt'
p161
aS'That-Game-of-Thrones-Scene-Wasn\xe2\x80\x99t-a-\xe2\x80\x98Turn-On,\xe2\x80\x99-It-Was-Rape-.txt'
p162
aS'The-5-Comics-You-Have-to-Read-This-Month-.txt'
p163
aS'The-Art-and-Science-of-NASA\xe2\x80\x99s-Best-Exoplanet-Illustrations-.txt'
p164
aS'The-Clever-Thinking-Behind-Lytro\xe2\x80\x99s-Gorgeous-New-Camera-Design-.txt'
p165
aS'The-Comics-You-Must-Grab-After-Seeing-The-Amazing-Spider-Man-2-.txt'
p166
aS'The-Crazy-Diversity-of-Animal-Skulls,-From-Hippos-to-Hummingbirds-.txt'
p167
aS'The-Crowdfunding-Upstart-That\xe2\x80\x99s-Turning-Freelancers-Into-Superstars-.txt'
p168
aS'The-Feds-Cut-a-Deal-With-In-Flight-Wi-Fi-Providers,-and-Privacy-Groups-Are-Worried-.txt'
p169
aS'The-Gadgets-and-Gear-We-Loved-Most-This-Month-.txt'
p170
aS'The-Must-Watch-TV-Moments-You-Missed-This-Week-.txt'
p171
aS'The-Near-Impossible-Challenge-of-Designing-the-911-Museum-.txt'
p172
aS'The-Next-Big-Thing-You-Missed-One-Day,-You\xe2\x80\x99ll-Google-the-Physical-World-With-a-Scanner-Like-This-.txt'
p173
aS'The-Physics-of-a-Front-Wheel-Drive-Lawn-Mower-.txt'
p174
aS'The-Real-Medical-Conditions-Behind-the-Deformed-Hands-in-Rodin\xe2\x80\x99s-Sculptures-.txt'
p175
aS'The-Sharing-Economy-Needs-to-Start-Sharing-Its-Data-Too-.txt'
p176
aS'The-Silent-Hybrid-Motorcycles-the-Pentagon-Will-Use-for-Stealth-Raids-.txt'
p177
aS'The-Strange,-Secret-History-of-Isaac-Newton\xe2\x80\x99s-Papers-.txt'
p178
aS'The-Unfinished-Science-Behind-the-New-Wave-of-Electrical-Brain-Stimulation-.txt'
p179
aS'The-Universe-Is-Programmable.-We-Need-an-API-for-Everything-.txt'
p180
aS'The-Untold-Story-of-How-Sega-Nearly-Won-the-Console-Wars-.txt'
p181
aS'Thinking-on-the-Top-Shelf-.txt'
p182
aS'This-Breakthrough-Book-About-Water-Safety-Can-Filter-4-Years\xe2\x80\x99-Worth-of-Clean-Water-.txt'
p183
aS'This-Game\xe2\x80\x99s-Levels-Went-Missing\xe2\x80\x94So-Fans-Rebuilt-Them-From-Scratch-.txt'
p184
aS'This-Harvard-Professor-Wants-Your-Help-to-Take-Over-the-Government-.txt'
p185
aS'This-Parking-Lot-Is-Paved-With-Solar-Panels-.txt'
p186
aS'This-Pricey-DVR-That-Records-Over-Airwaves-Is-Almost-Worth-It-.txt'
p187
aS'This-Shape-Shifting-4K-TV-Adjusts-Itself-for-Ideal-Viewing-.txt'
p188
aS'This-Week\xe2\x80\x99s-Best-Trailers-Chaos-in-Gotham-and-Khal-Drogo-on-a-Bike-.txt'
p189
aS'To-Save-Gas,-VW-Introduces-the-World\xe2\x80\x99s-First-10-Speed-Transmission-.txt'
p190
aS'Tour-the-Pubs-and-Dance-Halls-of-Israel\xe2\x80\x99s-Many-Bomb-Shelters-.txt'
p191
aS'Tracking-Dinosaurs,-Bear-Dogs,-and-Scorpions-With-Fossil-Footprints-.txt'
p192
aS'Two-Pro-Level-Blenders-for-the-Demanding-Smoothie-Specialist-.txt'
p193
aS'Under-a-Microscope-Even-Familiar-Things-Look-Beautifully-Weird-.txt'
p194
aS'Universal-malware-for-everybody-.txt'
p195
aS'Use-Science-and-Tech-to-Build-the-Ultimate-Automated-Garden-.txt'
p196
aS'Video-Analysis-of-an-Exploding-Death-Star-.txt'
p197
aS'Vinyl-Freaks-Show-Off-Their-Epic-Collections-in-Beautiful-New-Photo-Book-.txt'
p198
aS'Watch-an-Epic-Trailer-for-the-First-Film-Made-for-Oculus-VR-.txt'
p199
aS'Watch-High-Tech-Fabric-Changes-Color-When-You-Touch-It-.txt'
p200
aS'Watch-How-Andy-Warhol\xe2\x80\x99s-Lost-Computer-Art-Was-Finally-Found-.txt'
p201
aS'Watch-Live-as-Mars-Grows-Super-Bright-in-the-Night-Sky-.txt'
p202
aS'Watch-Live-NASA-on-Why-3-D-Printing-Is-the-Next-Step-in-the-Final-Frontier-.txt'
p203
aS'Watch-the-Ultimate-Mashup-of-Game-of-Thrones-and-Super-Mario-.txt'
p204
aS'Watch-This-400-Foot-Tall-Gas-Tank-Become-an-Insane-Light-Show-.txt'
p205
aS'Watch-World\xe2\x80\x99s-Fastest-Motorcycle-Is-So-Smart,-Even-Rookies-Can-Master-It-.txt'
p206
aS'Web-Semantics-Doge-.txt'
p207
aS'We\xe2\x80\x99ve-Got-Collaborations-Galore-in-This-Weekend\xe2\x80\x99s-Playlist-.txt'
p208
aS'What-Google\xe2\x80\x99s-King-of-Crazy-Ideas-Wants-to-Take-On-Next-.txt'
p209
aS'What-Happens-When-a-Neurosurgeon-Removes-Your-Hippocampus-.txt'
p210
aS'What-Kind-of-Science-is-Computational-Science-.txt'
p211
aS'What-Makes-or-Breaks-Startups-in-the-Sharing-Economy-Insurance-Rates-.txt'
p212
aS'What\xe2\x80\x99s-Inside-America\xe2\x80\x99s-Most-Luxurious-Train-Cars-.txt'
p213
aS'What\xe2\x80\x99s-Up-With-That-The-Mysterious-Effect-That-Makes-Hot-Water-Freeze-Faster-Than-Cold-.txt'
p214
aS'Whistleblowers-Beware-Apps-Like-Whisper-and-Secret-Will-Rat-You-Out-.txt'
p215
aS'Why-Anonymity-Apps-Are-So-Healthy\xe2\x80\x94And-So-Rotten-.txt'
p216
aS'Why-Facebook\xe2\x80\x99s-$2-Billion-Oculus-Buy-Is-a-Bet-Too-Far-.txt'
p217
aS'Why-Formula-1-Racers-Are-Relearning-How-to-Drive-.txt'
p218
aS'Why-Hollywood-Needs-to-Learn-to-Love-Tumblr-.txt'
p219
aS'Why-Kickstarter-Doesn\xe2\x80\x99t-Want-You-to-Profit-From-Your-Donations-.txt'
p220
aS'Why-Oracle\xe2\x80\x99s-Copyright-Victory-Over-Google-Is-Bad-News-for-Everyone-.txt'
p221
aS'Why-the-Console-Wars-Won\xe2\x80\x99t-Be-Anything-Like-You-Expect-.txt'
p222
aS'Why-Yahoo-Keeps-Killing-Everything-It-Buys-.txt'
p223
aS'Wicked-Game-.txt'
p224
aS'Wild-Gizmo-Lets-You-Scramble-Eggs-Inside-Their-Shells-.txt'
p225
aS'World\xe2\x80\x99s-Many-Databases-Unite-to-Form-One-Simple-Super-Service-.txt'
p226
aS'Yellowstone-Caldera-More-Magma,-Less-Eruptible-.txt'
p227
aS'You-Can-Now-Link-Two-Mini-Jamboxes-for-Superb-Stereo-Sound-.txt'
p228
a.